target datalayout = "e-m:e-p270:32:32-p271:32:32-p272:64:64-i64:64-i128:128-f80:128-n8:16:32:64-S128"
target triple = "x86_64-pc-linux-gnu"

%struct.MovChannelLayoutMap = type { %union.anon.0 }
%union.anon.0 = type { i32 }
%struct.AVChannelLayout = type { i32, i32, %union.anon, ptr }
%union.anon = type { i64 }

; Function Attrs: nounwind uwtable
define internal ptr @find_layout_map(i32 noundef %0, ptr noundef %1) #0 {
  %3 = alloca ptr, align 8
  %4 = alloca i32, align 4
  %5 = alloca ptr, align 8
  %6 = alloca i32, align 4
  %7 = alloca i32, align 4
  store i32 %0, ptr %4, align 4, !tbaa !14
  store ptr %1, ptr %5, align 8, !tbaa !36
  call void @llvm.lifetime.start.p0(i64 4, ptr %6) #4
  store i32 0, ptr %6, align 4, !tbaa !14
  br label %8

8:                                                ; preds = %34, %2
  %9 = load ptr, ptr %5, align 8, !tbaa !36
  %10 = load i32, ptr %6, align 4, !tbaa !14
  %11 = sext i32 %10 to i64
  %12 = getelementptr inbounds %struct.MovChannelLayoutMap, ptr %9, i64 %11
  %13 = getelementptr inbounds nuw %struct.MovChannelLayoutMap, ptr %12, i32 0, i32 0
  %14 = load i32, ptr %13, align 4, !tbaa !31
  %15 = and i32 %14, 65535
  %16 = icmp ne i32 %15, 0
  br i1 %16, label %18, label %17

17:                                               ; preds = %8
  store i32 2, ptr %7, align 4
  br label %45

18:                                               ; preds = %8
  %19 = load ptr, ptr %5, align 8, !tbaa !36
  %20 = load i32, ptr %6, align 4, !tbaa !14
  %21 = sext i32 %20 to i64
  %22 = getelementptr inbounds %struct.MovChannelLayoutMap, ptr %19, i64 %21
  %23 = getelementptr inbounds nuw %struct.MovChannelLayoutMap, ptr %22, i32 0, i32 0
  %24 = load i32, ptr %23, align 4, !tbaa !31
  %25 = load i32, ptr %4, align 4, !tbaa !14
  %26 = icmp eq i32 %24, %25
  br i1 %26, label %27, label %33

27:                                               ; preds = %18
  %28 = load ptr, ptr %5, align 8, !tbaa !36
  %29 = load i32, ptr %6, align 4, !tbaa !14
  %30 = add nsw i32 %29, 1
  %31 = sext i32 %30 to i64
  %32 = getelementptr inbounds %struct.MovChannelLayoutMap, ptr %28, i64 %31
  store ptr %32, ptr %3, align 8
  store i32 1, ptr %7, align 4
  br label %45

33:                                               ; preds = %18
  br label %34

34:                                               ; preds = %33
  %35 = load ptr, ptr %5, align 8, !tbaa !36
  %36 = load i32, ptr %6, align 4, !tbaa !14
  %37 = sext i32 %36 to i64
  %38 = getelementptr inbounds %struct.MovChannelLayoutMap, ptr %35, i64 %37
  %39 = getelementptr inbounds nuw %struct.MovChannelLayoutMap, ptr %38, i32 0, i32 0
  %40 = load i32, ptr %39, align 4, !tbaa !31
  %41 = and i32 %40, 65535
  %42 = add i32 1, %41
  %43 = load i32, ptr %6, align 4, !tbaa !14
  %44 = add i32 %43, %42
  store i32 %44, ptr %6, align 4, !tbaa !14
  br label %8, !llvm.loop !74

45:                                               ; preds = %27, %17
  call void @llvm.lifetime.end.p0(i64 4, ptr %6) #4
  %46 = load i32, ptr %7, align 4
  switch i32 %46, label %50 [
    i32 2, label %47
    i32 1, label %48
  ]

47:                                               ; preds = %45
  store ptr null, ptr %3, align 8
  br label %48

48:                                               ; preds = %47, %45
  %49 = load ptr, ptr %3, align 8
  ret ptr %49

50:                                               ; preds = %45
  unreachable
}

; Function Attrs: nounwind uwtable
define internal i32 @is_layout_valid_for_tag(ptr noundef %0, i32 noundef %1, ptr noundef %2) #0 {
  %4 = alloca i32, align 4
  %5 = alloca ptr, align 8
  %6 = alloca i32, align 4
  %7 = alloca ptr, align 8
  %8 = alloca ptr, align 8
  %9 = alloca i32, align 4
  %10 = alloca i32, align 4
  %11 = alloca i32, align 4
  store ptr %0, ptr %5, align 8, !tbaa !34
  store i32 %1, ptr %6, align 4, !tbaa !14
  store ptr %2, ptr %7, align 8, !tbaa !36
  call void @llvm.lifetime.start.p0(i64 8, ptr %8) #4
  call void @llvm.lifetime.start.p0(i64 4, ptr %9) #4
  %12 = load ptr, ptr %5, align 8, !tbaa !34
  %13 = getelementptr inbounds nuw %struct.AVChannelLayout, ptr %12, i32 0, i32 1
  %14 = load i32, ptr %13, align 4, !tbaa !38
  store i32 %14, ptr %9, align 4, !tbaa !14
  %15 = load i32, ptr %6, align 4, !tbaa !14
  %16 = and i32 %15, 65535
  %17 = load i32, ptr %9, align 4, !tbaa !14
  %18 = icmp ne i32 %16, %17
  br i1 %18, label %19, label %20

19:                                               ; preds = %3
  store i32 0, ptr %4, align 4
  store i32 1, ptr %10, align 4
  br label %57

20:                                               ; preds = %3
  %21 = load i32, ptr %6, align 4, !tbaa !14
  %22 = load ptr, ptr %7, align 8, !tbaa !36
  %23 = call ptr @find_layout_map(i32 noundef %21, ptr noundef %22)
  store ptr %23, ptr %8, align 8, !tbaa !36
  %24 = load ptr, ptr %8, align 8, !tbaa !36
  %25 = icmp ne ptr %24, null
  br i1 %25, label %26, label %56

26:                                               ; preds = %20
  call void @llvm.lifetime.start.p0(i64 4, ptr %11) #4
  store i32 0, ptr %11, align 4, !tbaa !14
  br label %27

27:                                               ; preds = %44, %26
  %28 = load i32, ptr %11, align 4, !tbaa !14
  %29 = load i32, ptr %9, align 4, !tbaa !14
  %30 = icmp slt i32 %28, %29
  br i1 %30, label %31, label %47

31:                                               ; preds = %27
  %32 = load ptr, ptr %5, align 8, !tbaa !34
  %33 = load i32, ptr %11, align 4, !tbaa !14
  %34 = call i32 @av_channel_layout_channel_from_index(ptr noundef %32, i32 noundef %33)
  %35 = load ptr, ptr %8, align 8, !tbaa !36
  %36 = load i32, ptr %11, align 4, !tbaa !14
  %37 = sext i32 %36 to i64
  %38 = getelementptr inbounds %struct.MovChannelLayoutMap, ptr %35, i64 %37
  %39 = getelementptr inbounds nuw %struct.MovChannelLayoutMap, ptr %38, i32 0, i32 0
  %40 = load i32, ptr %39, align 4, !tbaa !31
  %41 = icmp ne i32 %34, %40
  br i1 %41, label %42, label %43

42:                                               ; preds = %31
  br label %47

43:                                               ; preds = %31
  br label %44

44:                                               ; preds = %43
  %45 = load i32, ptr %11, align 4, !tbaa !14
  %46 = add nsw i32 %45, 1
  store i32 %46, ptr %11, align 4, !tbaa !14
  br label %27, !llvm.loop !39

47:                                               ; preds = %42, %27
  %48 = load i32, ptr %11, align 4, !tbaa !14
  %49 = load i32, ptr %9, align 4, !tbaa !14
  %50 = icmp eq i32 %48, %49
  br i1 %50, label %51, label %52

51:                                               ; preds = %47
  store i32 1, ptr %4, align 4
  store i32 1, ptr %10, align 4
  br label %53

52:                                               ; preds = %47
  store i32 0, ptr %10, align 4
  br label %53

53:                                               ; preds = %52, %51
  call void @llvm.lifetime.end.p0(i64 4, ptr %11) #4
  %54 = load i32, ptr %10, align 4
  switch i32 %54, label %57 [
    i32 0, label %55
  ]

55:                                               ; preds = %53
  br label %56

56:                                               ; preds = %55, %20
  store i32 0, ptr %4, align 4
  store i32 1, ptr %10, align 4
  br label %57

57:                                               ; preds = %56, %53, %19
  call void @llvm.lifetime.end.p0(i64 4, ptr %9) #4
  call void @llvm.lifetime.end.p0(i64 8, ptr %8) #4
  %58 = load i32, ptr %4, align 4
  ret i32 %58
}

; Function Attrs: nounwind uwtable
define i32 @ff_mov_get_channel_config_from_layout(ptr noundef %0, ptr noundef %1) #0 {
  %3 = alloca ptr, align 8
  %4 = alloca ptr, align 8
  %5 = alloca i32, align 4
  %6 = alloca i32, align 4
  store ptr %0, ptr %3, align 8, !tbaa !34
  store ptr %1, ptr %4, align 8, !tbaa !9
  %7 = load ptr, ptr %4, align 8, !tbaa !9
  store i32 0, ptr %7, align 4, !tbaa !14
  call void @llvm.lifetime.start.p0(i64 4, ptr %5) #4
  store i32 0, ptr %5, align 4, !tbaa !14
  br label %8

8:                                                ; preds = %38, %2
  %9 = load i32, ptr %5, align 4, !tbaa !14
  %10 = sext i32 %9 to i64
  %11 = getelementptr inbounds [97 x %struct.MovChannelLayoutMap], ptr @iso_ch_layout_map, i64 0, i64 %10
  %12 = getelementptr inbounds nuw %struct.MovChannelLayoutMap, ptr %11, i32 0, i32 0
  %13 = load i32, ptr %12, align 4, !tbaa !31
  %14 = and i32 %13, 65535
  %15 = icmp ne i32 %14, 0
  br i1 %15, label %17, label %16

16:                                               ; preds = %8
  store i32 2, ptr %6, align 4
  br label %48

17:                                               ; preds = %8
  %18 = load ptr, ptr %3, align 8, !tbaa !34
  %19 = load i32, ptr %5, align 4, !tbaa !14
  %20 = sext i32 %19 to i64
  %21 = getelementptr inbounds [97 x %struct.MovChannelLayoutMap], ptr @iso_ch_layout_map, i64 0, i64 %20
  %22 = getelementptr inbounds nuw %struct.MovChannelLayoutMap, ptr %21, i32 0, i32 0
  %23 = load i32, ptr %22, align 4, !tbaa !31
  %24 = load i32, ptr %5, align 4, !tbaa !14
  %25 = sext i32 %24 to i64
  %26 = getelementptr inbounds [97 x %struct.MovChannelLayoutMap], ptr @iso_ch_layout_map, i64 0, i64 %25
  %27 = call i32 @is_layout_valid_for_tag(ptr noundef %18, i32 noundef %23, ptr noundef %26)
  %28 = icmp ne i32 %27, 0
  br i1 %28, label %29, label %37

29:                                               ; preds = %17
  %30 = load i32, ptr %5, align 4, !tbaa !14
  %31 = sext i32 %30 to i64
  %32 = getelementptr inbounds [97 x %struct.MovChannelLayoutMap], ptr @iso_ch_layout_map, i64 0, i64 %31
  %33 = getelementptr inbounds nuw %struct.MovChannelLayoutMap, ptr %32, i32 0, i32 0
  %34 = load i32, ptr %33, align 4, !tbaa !31
  %35 = lshr i32 %34, 16
  %36 = load ptr, ptr %4, align 8, !tbaa !9
  store i32 %35, ptr %36, align 4, !tbaa !14
  store i32 2, ptr %6, align 4
  br label %48

37:                                               ; preds = %17
  br label %38

38:                                               ; preds = %37
  %39 = load i32, ptr %5, align 4, !tbaa !14
  %40 = sext i32 %39 to i64
  %41 = getelementptr inbounds [97 x %struct.MovChannelLayoutMap], ptr @iso_ch_layout_map, i64 0, i64 %40
  %42 = getelementptr inbounds nuw %struct.MovChannelLayoutMap, ptr %41, i32 0, i32 0
  %43 = load i32, ptr %42, align 4, !tbaa !31
  %44 = and i32 %43, 65535
  %45 = add i32 1, %44
  %46 = load i32, ptr %5, align 4, !tbaa !14
  %47 = add i32 %46, %45
  store i32 %47, ptr %5, align 4, !tbaa !14
  br label %8, !llvm.loop !69

48:                                               ; preds = %29, %16
  call void @llvm.lifetime.end.p0(i64 4, ptr %5) #4
  br label %49

49:                                               ; preds = %48
  ret i32 0
}