; Function Attrs: nounwind uwtable
define noundef i32 @ff_mov_get_channel_config_from_layout(ptr noundef %0, ptr noundef writeonly captures(none) initializes((0, 4)) %1) local_unnamed_addr #0 {
  store i32 0, ptr %1, align 4, !tbaa !20
  %3 = getelementptr inbounds nuw i8, ptr %0, i64 4
  br label %4

4:                                                ; preds = %2, %find_layout_map.exit.thread.i
  %5 = phi i32 [ 1, %2 ], [ %21, %find_layout_map.exit.thread.i ]
  %6 = phi i32 [ 65537, %2 ], [ %20, %find_layout_map.exit.thread.i ]
  %7 = phi ptr [ @iso_ch_layout_map, %2 ], [ %19, %find_layout_map.exit.thread.i ]
  %.016 = phi i32 [ 0, %2 ], [ %17, %find_layout_map.exit.thread.i ]
  %8 = load i32, ptr %3, align 4, !tbaa !21
  %.not.i = icmp eq i32 %5, %8
  br i1 %.not.i, label %find_layout_map.exit.i, label %find_layout_map.exit.thread.i

find_layout_map.exit.i:                           ; preds = %4
  %9 = getelementptr i8, ptr %7, i64 4
  %.not20.i = icmp eq ptr %9, null
  br i1 %.not20.i, label %find_layout_map.exit.thread.i, label %.lr.ph28.preheader.i

.lr.ph28.preheader.i:                             ; preds = %find_layout_map.exit.i
  %wide.trip.count.i = zext nneg i32 %5 to i64
  br label %.lr.ph28.i

.lr.ph28.i:                                       ; preds = %14, %.lr.ph28.preheader.i
  %indvars.iv.i = phi i64 [ 0, %.lr.ph28.preheader.i ], [ %indvars.iv.next.i, %14 ]
  %10 = trunc nuw nsw i64 %indvars.iv.i to i32
  %11 = tail call i32 @av_channel_layout_channel_from_index(ptr noundef %0, i32 noundef %10) #3
  %12 = getelementptr inbounds nuw %struct.MovChannelLayoutMap, ptr %9, i64 %indvars.iv.i
  %13 = load i32, ptr %12, align 4, !tbaa !23
  %.not21.i = icmp eq i32 %11, %13
  br i1 %.not21.i, label %14, label %._crit_edge.i

14:                                               ; preds = %.lr.ph28.i
  %indvars.iv.next.i = add nuw nsw i64 %indvars.iv.i, 1
  %exitcond.not.i = icmp eq i64 %indvars.iv.next.i, %wide.trip.count.i
  br i1 %exitcond.not.i, label %is_layout_valid_for_tag.exit, label %.lr.ph28.i, !llvm.loop !24

._crit_edge.i:                                    ; preds = %.lr.ph28.i
  %.not22.i = icmp eq i32 %5, %10
  br i1 %.not22.i, label %is_layout_valid_for_tag.exit, label %find_layout_map.exit.thread.i

is_layout_valid_for_tag.exit:                     ; preds = %._crit_edge.i, %14
  %15 = lshr i32 %6, 16
  store i32 %15, ptr %1, align 4, !tbaa !20
  br label %.loopexit

find_layout_map.exit.thread.i:                    ; preds = %find_layout_map.exit.i, %._crit_edge.i, %4
  %16 = add i32 %.016, 1
  %17 = add i32 %16, %5
  %18 = sext i32 %17 to i64
  %19 = getelementptr inbounds [97 x %struct.MovChannelLayoutMap], ptr @iso_ch_layout_map, i64 0, i64 %18
  %20 = load i32, ptr %19, align 4, !tbaa !23
  %21 = and i32 %20, 65535
  %.not = icmp eq i32 %21, 0
  br i1 %.not, label %.loopexit, label %4, !llvm.loop !56

.loopexit:                                        ; preds = %find_layout_map.exit.thread.i, %is_layout_valid_for_tag.exit
  ret i32 0
}